target datalayout = "e-m:e-p270:32:32-p271:32:32-p272:64:64-i64:64-i128:128-f80:128-n8:16:32:64-S128"
target triple = "x86_64-pc-linux-gnu"

%struct.AVFilterContext = type { ptr, ptr, ptr, ptr, ptr, i32, ptr, ptr, i32, ptr, ptr, i32, i32, ptr, ptr, ptr, ptr, i32, ptr, i32, i32 }
%struct.LimitDiffContext = type { ptr, float, float, i32, i32, i32, i32, [4 x i32], [4 x i32], [4 x i32], i32, i32, %struct.FFFrameSync, ptr }
%struct.FFFrameSync = type { ptr, ptr, i32, %struct.AVRational, i64, ptr, ptr, i32, i32, i8, i8, ptr, i32, i32, i32, i32 }
%struct.AVRational = type { i32, i32 }
%struct.AVFilterLink = type { ptr, ptr, ptr, ptr, i32, i32, i32, i32, %struct.AVRational, i32, i32, i32, %struct.AVChannelLayout, %struct.AVRational, ptr, i32, %struct.AVFilterFormatsConfig, %struct.AVFilterFormatsConfig }
%struct.AVChannelLayout = type { i32, i32, %union.anon.1, ptr }
%union.anon.1 = type { i64 }
%struct.AVFilterFormatsConfig = type { ptr, ptr, ptr, ptr, ptr }
%struct.ThreadData = type { ptr, ptr, ptr, ptr }
%struct.AVFrame = type { [8 x ptr], [8 x i32], ptr, i32, i32, i32, i32, i32, %struct.AVRational, i64, i64, %struct.AVRational, i32, ptr, i32, i32, [8 x ptr], ptr, i32, ptr, i32, i32, i32, i32, i32, i32, i32, i64, ptr, i32, ptr, ptr, i64, i64, i64, i64, ptr, %struct.AVChannelLayout, i64 }

; Function Attrs: nounwind uwtable
define internal i32 @process_frame(ptr noundef %0) #2 {
  %2 = alloca i32, align 4
  %3 = alloca ptr, align 8
  %4 = alloca ptr, align 8
  %5 = alloca ptr, align 8
  %6 = alloca ptr, align 8
  %7 = alloca ptr, align 8
  %8 = alloca ptr, align 8
  %9 = alloca ptr, align 8
  %10 = alloca ptr, align 8
  %11 = alloca i32, align 4
  %12 = alloca i32, align 4
  %13 = alloca %struct.ThreadData, align 8
  store ptr %0, ptr %3, align 8, !tbaa !60
  call void @llvm.lifetime.start.p0(i64 8, ptr %4) #10
  %14 = load ptr, ptr %3, align 8, !tbaa !60
  %15 = getelementptr inbounds nuw %struct.FFFrameSync, ptr %14, i32 0, i32 1
  %16 = load ptr, ptr %15, align 8, !tbaa !62
  store ptr %16, ptr %4, align 8, !tbaa !4
  call void @llvm.lifetime.start.p0(i64 8, ptr %5) #10
  %17 = load ptr, ptr %3, align 8, !tbaa !60
  %18 = getelementptr inbounds nuw %struct.FFFrameSync, ptr %17, i32 0, i32 6
  %19 = load ptr, ptr %18, align 8, !tbaa !63
  store ptr %19, ptr %5, align 8, !tbaa !22
  call void @llvm.lifetime.start.p0(i64 8, ptr %6) #10
  %20 = load ptr, ptr %4, align 8, !tbaa !4
  %21 = getelementptr inbounds nuw %struct.AVFilterContext, ptr %20, i32 0, i32 7
  %22 = load ptr, ptr %21, align 8, !tbaa !64
  %23 = getelementptr inbounds ptr, ptr %22, i64 0
  %24 = load ptr, ptr %23, align 8, !tbaa !35
  store ptr %24, ptr %6, align 8, !tbaa !35
  call void @llvm.lifetime.start.p0(i64 8, ptr %7) #10
  call void @llvm.lifetime.start.p0(i64 8, ptr %8) #10
  call void @llvm.lifetime.start.p0(i64 8, ptr %9) #10
  call void @llvm.lifetime.start.p0(i64 8, ptr %10) #10
  store ptr null, ptr %10, align 8, !tbaa !65
  call void @llvm.lifetime.start.p0(i64 4, ptr %11) #10
  %25 = load ptr, ptr %5, align 8, !tbaa !22
  %26 = getelementptr inbounds nuw %struct.LimitDiffContext, ptr %25, i32 0, i32 12
  %27 = call i32 @ff_framesync_get_frame(ptr noundef %26, i32 noundef 0, ptr noundef %8, i32 noundef 0)
  store i32 %27, ptr %11, align 4, !tbaa !24
  %28 = icmp slt i32 %27, 0
  br i1 %28, label %34, label %29

29:                                               ; preds = %1
  %30 = load ptr, ptr %5, align 8, !tbaa !22
  %31 = getelementptr inbounds nuw %struct.LimitDiffContext, ptr %30, i32 0, i32 12
  %32 = call i32 @ff_framesync_get_frame(ptr noundef %31, i32 noundef 1, ptr noundef %9, i32 noundef 0)
  store i32 %32, ptr %11, align 4, !tbaa !24
  %33 = icmp slt i32 %32, 0
  br i1 %33, label %34, label %36

34:                                               ; preds = %29, %1
  %35 = load i32, ptr %11, align 4, !tbaa !24
  store i32 %35, ptr %2, align 4
  store i32 1, ptr %12, align 4
  br label %132

36:                                               ; preds = %29
  %37 = load ptr, ptr %5, align 8, !tbaa !22
  %38 = getelementptr inbounds nuw %struct.LimitDiffContext, ptr %37, i32 0, i32 3
  %39 = load i32, ptr %38, align 8, !tbaa !28
  %40 = icmp ne i32 %39, 0
  br i1 %40, label %41, label %49

41:                                               ; preds = %36
  %42 = load ptr, ptr %5, align 8, !tbaa !22
  %43 = getelementptr inbounds nuw %struct.LimitDiffContext, ptr %42, i32 0, i32 12
  %44 = call i32 @ff_framesync_get_frame(ptr noundef %43, i32 noundef 2, ptr noundef %10, i32 noundef 0)
  store i32 %44, ptr %11, align 4, !tbaa !24
  %45 = icmp slt i32 %44, 0
  br i1 %45, label %46, label %48

46:                                               ; preds = %41
  %47 = load i32, ptr %11, align 4, !tbaa !24
  store i32 %47, ptr %2, align 4
  store i32 1, ptr %12, align 4
  br label %132

48:                                               ; preds = %41
  br label %49

49:                                               ; preds = %48, %36
  %50 = load ptr, ptr %4, align 8, !tbaa !4
  %51 = getelementptr inbounds nuw %struct.AVFilterContext, ptr %50, i32 0, i32 17
  %52 = load i32, ptr %51, align 8, !tbaa !66
  %53 = icmp ne i32 %52, 0
  br i1 %53, label %54, label %61

54:                                               ; preds = %49
  %55 = load ptr, ptr %8, align 8, !tbaa !65
  %56 = call ptr @av_frame_clone(ptr noundef %55)
  store ptr %56, ptr %7, align 8, !tbaa !65
  %57 = load ptr, ptr %7, align 8, !tbaa !65
  %58 = icmp ne ptr %57, null
  br i1 %58, label %60, label %59

59:                                               ; preds = %54
  store i32 -12, ptr %2, align 4
  store i32 1, ptr %12, align 4
  br label %132

60:                                               ; preds = %54
  br label %114

61:                                               ; preds = %49
  call void @llvm.lifetime.start.p0(i64 32, ptr %13) #10
  %62 = load ptr, ptr %6, align 8, !tbaa !35
  %63 = load ptr, ptr %6, align 8, !tbaa !35
  %64 = getelementptr inbounds nuw %struct.AVFilterLink, ptr %63, i32 0, i32 6
  %65 = load i32, ptr %64, align 8, !tbaa !47
  %66 = load ptr, ptr %6, align 8, !tbaa !35
  %67 = getelementptr inbounds nuw %struct.AVFilterLink, ptr %66, i32 0, i32 7
  %68 = load i32, ptr %67, align 4, !tbaa !48
  %69 = call ptr @ff_get_video_buffer(ptr noundef %62, i32 noundef %65, i32 noundef %68)
  store ptr %69, ptr %7, align 8, !tbaa !65
  %70 = load ptr, ptr %7, align 8, !tbaa !65
  %71 = icmp ne ptr %70, null
  br i1 %71, label %73, label %72

72:                                               ; preds = %61
  store i32 -12, ptr %2, align 4
  store i32 1, ptr %12, align 4
  br label %111

73:                                               ; preds = %61
  %74 = load ptr, ptr %7, align 8, !tbaa !65
  %75 = load ptr, ptr %8, align 8, !tbaa !65
  %76 = call i32 @av_frame_copy_props(ptr noundef %74, ptr noundef %75)
  %77 = load ptr, ptr %8, align 8, !tbaa !65
  %78 = getelementptr inbounds nuw %struct.ThreadData, ptr %13, i32 0, i32 0
  store ptr %77, ptr %78, align 8, !tbaa !67
  %79 = load ptr, ptr %9, align 8, !tbaa !65
  %80 = getelementptr inbounds nuw %struct.ThreadData, ptr %13, i32 0, i32 1
  store ptr %79, ptr %80, align 8, !tbaa !69
  %81 = load ptr, ptr %10, align 8, !tbaa !65
  %82 = icmp ne ptr %81, null
  br i1 %82, label %83, label %85

83:                                               ; preds = %73
  %84 = load ptr, ptr %10, align 8, !tbaa !65
  br label %87

85:                                               ; preds = %73
  %86 = load ptr, ptr %9, align 8, !tbaa !65
  br label %87

87:                                               ; preds = %85, %83
  %88 = phi ptr [ %84, %83 ], [ %86, %85 ]
  %89 = getelementptr inbounds nuw %struct.ThreadData, ptr %13, i32 0, i32 2
  store ptr %88, ptr %89, align 8, !tbaa !70
  %90 = load ptr, ptr %7, align 8, !tbaa !65
  %91 = getelementptr inbounds nuw %struct.ThreadData, ptr %13, i32 0, i32 3
  store ptr %90, ptr %91, align 8, !tbaa !71
  %92 = load ptr, ptr %4, align 8, !tbaa !4
  %93 = load ptr, ptr %5, align 8, !tbaa !22
  %94 = getelementptr inbounds nuw %struct.LimitDiffContext, ptr %93, i32 0, i32 9
  %95 = getelementptr inbounds [4 x i32], ptr %94, i64 0, i64 0
  %96 = load i32, ptr %95, align 8, !tbaa !24
  %97 = load ptr, ptr %4, align 8, !tbaa !4
  %98 = call i32 @ff_filter_get_nb_threads(ptr noundef %97) #11
  %99 = icmp sgt i32 %96, %98
  br i1 %99, label %100, label %103

100:                                              ; preds = %87
  %101 = load ptr, ptr %4, align 8, !tbaa !4
  %102 = call i32 @ff_filter_get_nb_threads(ptr noundef %101) #11
  br label %108

103:                                              ; preds = %87
  %104 = load ptr, ptr %5, align 8, !tbaa !22
  %105 = getelementptr inbounds nuw %struct.LimitDiffContext, ptr %104, i32 0, i32 9
  %106 = getelementptr inbounds [4 x i32], ptr %105, i64 0, i64 0
  %107 = load i32, ptr %106, align 8, !tbaa !24
  br label %108

108:                                              ; preds = %103, %100
  %109 = phi i32 [ %102, %100 ], [ %107, %103 ]
  %110 = call i32 @ff_filter_execute(ptr noundef %92, ptr noundef @limitdiff_slice, ptr noundef %13, ptr noundef null, i32 noundef %109)
  store i32 0, ptr %12, align 4
  br label %111

111:                                              ; preds = %108, %72
  call void @llvm.lifetime.end.p0(i64 32, ptr %13) #10
  %112 = load i32, ptr %12, align 4
  switch i32 %112, label %132 [
    i32 0, label %113
  ]

113:                                              ; preds = %111
  br label %114

114:                                              ; preds = %113, %60
  %115 = load ptr, ptr %5, align 8, !tbaa !22
  %116 = getelementptr inbounds nuw %struct.LimitDiffContext, ptr %115, i32 0, i32 12
  %117 = getelementptr inbounds nuw %struct.FFFrameSync, ptr %116, i32 0, i32 4
  %118 = load i64, ptr %117, align 8, !tbaa !72
  %119 = load ptr, ptr %5, align 8, !tbaa !22
  %120 = getelementptr inbounds nuw %struct.LimitDiffContext, ptr %119, i32 0, i32 12
  %121 = getelementptr inbounds nuw %struct.FFFrameSync, ptr %120, i32 0, i32 3
  %122 = load ptr, ptr %6, align 8, !tbaa !35
  %123 = getelementptr inbounds nuw %struct.AVFilterLink, ptr %122, i32 0, i32 13
  %124 = load i64, ptr %121, align 4
  %125 = load i64, ptr %123, align 8
  %126 = call i64 @av_rescale_q(i64 noundef %118, i64 %124, i64 %125) #12
  %127 = load ptr, ptr %7, align 8, !tbaa !65
  %128 = getelementptr inbounds nuw %struct.AVFrame, ptr %127, i32 0, i32 9
  store i64 %126, ptr %128, align 8, !tbaa !73
  %129 = load ptr, ptr %6, align 8, !tbaa !35
  %130 = load ptr, ptr %7, align 8, !tbaa !65
  %131 = call i32 @ff_filter_frame(ptr noundef %129, ptr noundef %130)
  store i32 %131, ptr %2, align 4
  store i32 1, ptr %12, align 4
  br label %132

132:                                              ; preds = %114, %111, %59, %46, %34
  call void @llvm.lifetime.end.p0(i64 4, ptr %11) #10
  call void @llvm.lifetime.end.p0(i64 8, ptr %10) #10
  call void @llvm.lifetime.end.p0(i64 8, ptr %9) #10
  call void @llvm.lifetime.end.p0(i64 8, ptr %8) #10
  call void @llvm.lifetime.end.p0(i64 8, ptr %7) #10
  call void @llvm.lifetime.end.p0(i64 8, ptr %6) #10
  call void @llvm.lifetime.end.p0(i64 8, ptr %5) #10
  call void @llvm.lifetime.end.p0(i64 8, ptr %4) #10
  %133 = load i32, ptr %2, align 4
  ret i32 %133
}