; Function Attrs: nounwind uwtable
define internal i32 @process_frame(ptr noundef readonly captures(none) %0) #2 {
  %2 = alloca ptr, align 8
  %3 = alloca ptr, align 8
  %4 = alloca ptr, align 8
  %5 = alloca %struct.ThreadData, align 8
  %6 = getelementptr inbounds nuw i8, ptr %0, i64 8
  %7 = load ptr, ptr %6, align 8, !tbaa !52
  %8 = getelementptr inbounds nuw i8, ptr %0, i64 48
  %9 = load ptr, ptr %8, align 8, !tbaa !53
  %10 = getelementptr inbounds nuw i8, ptr %7, i64 56
  %11 = load ptr, ptr %10, align 8, !tbaa !54
  %12 = load ptr, ptr %11, align 8, !tbaa !39
  call void @llvm.lifetime.start.p0(i64 8, ptr nonnull %2) #9
  call void @llvm.lifetime.start.p0(i64 8, ptr nonnull %3) #9
  call void @llvm.lifetime.start.p0(i64 8, ptr nonnull %4) #9
  store ptr null, ptr %4, align 8, !tbaa !55
  %13 = getelementptr inbounds nuw i8, ptr %9, i64 88
  %14 = call i32 @ff_framesync_get_frame(ptr noundef nonnull %13, i32 noundef 0, ptr noundef nonnull %2, i32 noundef 0) #9
  %15 = icmp slt i32 %14, 0
  br i1 %15, label %61, label %16

16:                                               ; preds = %1
  %17 = call i32 @ff_framesync_get_frame(ptr noundef nonnull %13, i32 noundef 1, ptr noundef nonnull %3, i32 noundef 0) #9
  %18 = icmp slt i32 %17, 0
  br i1 %18, label %61, label %19

19:                                               ; preds = %16
  %20 = getelementptr inbounds nuw i8, ptr %9, i64 16
  %21 = load i32, ptr %20, align 8, !tbaa !23
  %.not = icmp eq i32 %21, 0
  br i1 %.not, label %25, label %22

22:                                               ; preds = %19
  %23 = call i32 @ff_framesync_get_frame(ptr noundef nonnull %13, i32 noundef 2, ptr noundef nonnull %4, i32 noundef 0) #9
  %24 = icmp slt i32 %23, 0
  br i1 %24, label %61, label %25

25:                                               ; preds = %22, %19
  %26 = getelementptr inbounds nuw i8, ptr %7, i64 128
  %27 = load i32, ptr %26, align 8, !tbaa !56
  %.not39 = icmp eq i32 %27, 0
  br i1 %.not39, label %31, label %28

28:                                               ; preds = %25
  %29 = load ptr, ptr %2, align 8, !tbaa !55
  %30 = call ptr @av_frame_clone(ptr noundef %29) #9
  %.not42 = icmp eq ptr %30, null
  br i1 %.not42, label %61, label %51

31:                                               ; preds = %25
  call void @llvm.lifetime.start.p0(i64 32, ptr nonnull %5) #9
  %32 = getelementptr inbounds nuw i8, ptr %12, i64 40
  %33 = load i32, ptr %32, align 8, !tbaa !41
  %34 = getelementptr inbounds nuw i8, ptr %12, i64 44
  %35 = load i32, ptr %34, align 4, !tbaa !42
  %36 = call ptr @ff_get_video_buffer(ptr noundef %12, i32 noundef %33, i32 noundef %35) #9
  %.not40.not = icmp eq ptr %36, null
  br i1 %.not40.not, label %.critedge, label %37

37:                                               ; preds = %31
  %38 = load ptr, ptr %2, align 8, !tbaa !55
  %39 = call i32 @av_frame_copy_props(ptr noundef nonnull %36, ptr noundef %38) #9
  %40 = load ptr, ptr %2, align 8, !tbaa !55
  store ptr %40, ptr %5, align 8, !tbaa !57
  %41 = load ptr, ptr %3, align 8, !tbaa !55
  %42 = getelementptr inbounds nuw i8, ptr %5, i64 8
  store ptr %41, ptr %42, align 8, !tbaa !59
  %43 = load ptr, ptr %4, align 8, !tbaa !55
  %.not41 = icmp eq ptr %43, null
  %44 = select i1 %.not41, ptr %41, ptr %43
  %45 = getelementptr inbounds nuw i8, ptr %5, i64 16
  store ptr %44, ptr %45, align 8, !tbaa !60
  %46 = getelementptr inbounds nuw i8, ptr %5, i64 24
  store ptr %36, ptr %46, align 8, !tbaa !61
  %47 = getelementptr inbounds nuw i8, ptr %9, i64 64
  %48 = load i32, ptr %47, align 8, !tbaa !62
  %49 = call i32 @ff_filter_get_nb_threads(ptr noundef nonnull %7) #10
  %. = call i32 @llvm.smin.i32(i32 %48, i32 %49)
  %50 = call i32 @ff_filter_execute(ptr noundef nonnull %7, ptr noundef nonnull @limitdiff_slice, ptr noundef nonnull %5, ptr noundef null, i32 noundef %.) #9
  call void @llvm.lifetime.end.p0(i64 32, ptr nonnull %5) #9
  br label %51

51:                                               ; preds = %37, %28
  %.030 = phi ptr [ %30, %28 ], [ %36, %37 ]
  %52 = getelementptr inbounds nuw i8, ptr %9, i64 120
  %53 = load i64, ptr %52, align 8, !tbaa !63
  %54 = getelementptr inbounds nuw i8, ptr %9, i64 108
  %55 = getelementptr inbounds nuw i8, ptr %12, i64 96
  %56 = load i64, ptr %54, align 4
  %57 = load i64, ptr %55, align 8
  %58 = call i64 @av_rescale_q(i64 noundef %53, i64 %56, i64 %57) #11
  %59 = getelementptr inbounds nuw i8, ptr %.030, i64 136
  store i64 %58, ptr %59, align 8, !tbaa !64
  %60 = call i32 @ff_filter_frame(ptr noundef %12, ptr noundef nonnull %.030) #9
  br label %61

.critedge:                                        ; preds = %31
  call void @llvm.lifetime.end.p0(i64 32, ptr nonnull %5) #9
  br label %61

61:                                               ; preds = %.critedge, %28, %22, %1, %16, %51
  %.031 = phi i32 [ %60, %51 ], [ %14, %1 ], [ %17, %16 ], [ %23, %22 ], [ -12, %28 ], [ -12, %.critedge ]
  call void @llvm.lifetime.end.p0(i64 8, ptr nonnull %4) #9
  call void @llvm.lifetime.end.p0(i64 8, ptr nonnull %3) #9
  call void @llvm.lifetime.end.p0(i64 8, ptr nonnull %2) #9
  ret i32 %.031
}